target datalayout = "e-m:e-p270:32:32-p271:32:32-p272:64:64-i64:64-i128:128-f80:128-n8:16:32:64-S128"
target triple = "x86_64-pc-linux-gnu"

%struct.Fraig_ManStruct_t_ = type { ptr, ptr, ptr, ptr, ptr, ptr, ptr, ptr, ptr, i32, i32, i32, i32, i32, i32, i32, i32, i32, i32, i32, i32, i64, i32, i32, i32, i32, i32, ptr, ptr, ptr, ptr, ptr, i32, ptr, ptr, ptr, ptr, ptr, ptr, i32, ptr, ptr, ptr, ptr, i32, i32, i32, i32, i32, i32, i32, i32, i32, i32, i32, i32, i32, i32, i32, i32, i32, i32, i32, i64, i64, i64, i64, i64, i64, i64, i64, i64, i64, i64, i64 }

; Function Attrs: nounwind uwtable
define ptr @Fraig_DfsNodes(ptr noundef %0, ptr noundef %1, i32 noundef %2, i32 noundef %3) #0 {
  %5 = alloca ptr, align 8
  %6 = alloca ptr, align 8
  %7 = alloca i32, align 4
  %8 = alloca i32, align 4
  %9 = alloca ptr, align 8
  %10 = alloca i32, align 4
  store ptr %0, ptr %5, align 8
  store ptr %1, ptr %6, align 8
  store i32 %2, ptr %7, align 4
  store i32 %3, ptr %8, align 4
  %11 = load ptr, ptr %5, align 8
  %12 = getelementptr inbounds %struct.Fraig_ManStruct_t_, ptr %11, i32 0, i32 22
  %13 = load i32, ptr %12, align 8
  %14 = add nsw i32 %13, 1
  store i32 %14, ptr %12, align 8
  %15 = call ptr @Fraig_NodeVecAlloc(i32 noundef 100)
  store ptr %15, ptr %9, align 8
  store i32 0, ptr %10, align 4
  br label %16

16:                                               ; preds = %32, %4
  %17 = load i32, ptr %10, align 4
  %18 = load i32, ptr %7, align 4
  %19 = icmp slt i32 %17, %18
  br i1 %19, label %20, label %35

20:                                               ; preds = %16
  %21 = load ptr, ptr %5, align 8
  %22 = load ptr, ptr %6, align 8
  %23 = load i32, ptr %10, align 4
  %24 = sext i32 %23 to i64
  %25 = getelementptr inbounds ptr, ptr %22, i64 %24
  %26 = load ptr, ptr %25, align 8
  %27 = ptrtoint ptr %26 to i64
  %28 = and i64 %27, -2
  %29 = inttoptr i64 %28 to ptr
  %30 = load ptr, ptr %9, align 8
  %31 = load i32, ptr %8, align 4
  call void @Fraig_Dfs_rec(ptr noundef %21, ptr noundef %29, ptr noundef %30, i32 noundef %31)
  br label %32

32:                                               ; preds = %20
  %33 = load i32, ptr %10, align 4
  %34 = add nsw i32 %33, 1
  store i32 %34, ptr %10, align 4
  br label %16, !llvm.loop !6

35:                                               ; preds = %16
  %36 = load ptr, ptr %9, align 8
  ret ptr %36
}